#include <math.h>
#include <stdio.h>
#include <stdlib.h>
#include <string.h>
#include <iostream>
using namespace std;

/*?1???? m ??? n ???????????
??????????????1????????????? 1 ????
?1????????????? n ??????? k ( k < n )??
???????k???????????1???
? 2 ?????????????? n ??????? k ????????? k ????
??????1??????????????????????? n ??????? k ??
????? k ??????????1????
????????????????1?????????? n ? k??????? m*/
//Goofy 2010 11 26
int MinApp(int,int);
int main()
{
	int n, k;
	cin>>n>>k;
	cout<<MinApp(n,k)<<endl;
	return 0;
}

int MinApp(int n,int k)
{
	int i, j, Apple;//i?????????????
	for (i=1;;i++)
	{	
		Apple=n*i+k;
		for (j=1; j<n; j++)
		{
			if ( (Apple%(n-1)) == 0)//????
				Apple=Apple*n/(n-1)+k;
			else
				break;
		}
		if (j==n)
			break;
	}
	return (Apple);
}